target datalayout = "e-m:e-p270:32:32-p271:32:32-p272:64:64-i64:64-i128:128-f80:128-n8:16:32:64-S128"
target triple = "x86_64-pc-linux-gnu"

%class.ClassPathEntry = type { ptr, ptr }
%class.ClassPathImageEntry = type { %class.ClassPathEntry, ptr }

@g_assert_poison = external global ptr, align 8
@.str.13 = private unnamed_addr constant [44 x i8] c"src/hotspot/share/classfile/classLoader.cpp\00", align 1
@.str.14 = private unnamed_addr constant [36 x i8] c"guarantee(jimage != nullptr) failed\00", align 1
@.str.15 = private unnamed_addr constant [20 x i8] c"jimage file is null\00", align 1
@.str.16 = private unnamed_addr constant [34 x i8] c"guarantee(name != nullptr) failed\00", align 1
@.str.17 = private unnamed_addr constant [25 x i8] c"jimage file name is null\00", align 1

; Function Attrs: mustprogress nounwind uwtable
define hidden noundef ptr @_ZN14ClassPathEntry9copy_pathEPKc(ptr noundef nonnull align 8 dereferenceable(16) %0, ptr noundef %1) #1 align 2 {
  %3 = alloca ptr, align 8
  %4 = alloca ptr, align 8
  %5 = alloca ptr, align 8
  store ptr %0, ptr %3, align 8
  store ptr %1, ptr %4, align 8
  %6 = load ptr, ptr %4, align 8
  %7 = call i64 @strlen(ptr noundef %6) #12
  %8 = add i64 %7, 1
  %9 = mul i64 %8, 1
  %10 = call noundef ptr @_Z12AllocateHeapm8MEMFLAGSN17AllocFailStrategy13AllocFailEnumE(i64 noundef %9, i8 noundef zeroext 1, i32 noundef 0)
  store ptr %10, ptr %5, align 8
  %11 = load ptr, ptr %5, align 8
  %12 = load ptr, ptr %4, align 8
  %13 = call ptr @strcpy(ptr noundef %11, ptr noundef %12) #13
  %14 = load ptr, ptr %5, align 8
  ret ptr %14
}

; Function Attrs: mustprogress nounwind uwtable
define linkonce_odr hidden void @_ZN14ClassPathEntryC2Ev(ptr noundef nonnull align 8 dereferenceable(16) %0) unnamed_addr #1 comdat align 2 {
  %2 = alloca ptr, align 8
  store ptr %0, ptr %2, align 8
  %3 = load ptr, ptr %2, align 8
  store ptr getelementptr inbounds inrange(-16, 80) ({ [12 x ptr] }, ptr @_ZTV14ClassPathEntry, i32 0, i32 0, i32 2), ptr %3, align 8
  %4 = getelementptr inbounds %class.ClassPathEntry, ptr %3, i32 0, i32 1
  store volatile ptr null, ptr %4, align 8
  ret void
}

; Function Attrs: mustprogress nounwind uwtable
define hidden void @_ZN19ClassPathImageEntryC2EP10JImageFilePKc(ptr noundef nonnull align 8 dereferenceable(24) %0, ptr noundef %1, ptr noundef %2) unnamed_addr #1 align 2 {
  %4 = alloca ptr, align 8
  %5 = alloca ptr, align 8
  %6 = alloca ptr, align 8
  %7 = alloca i64, align 8
  store ptr %0, ptr %4, align 8
  store ptr %1, ptr %5, align 8
  store ptr %2, ptr %6, align 8
  %8 = load ptr, ptr %4, align 8
  call void @_ZN14ClassPathEntryC2Ev(ptr noundef nonnull align 8 dereferenceable(16) %8)
  store ptr getelementptr inbounds inrange(-16, 80) ({ [12 x ptr] }, ptr @_ZTV19ClassPathImageEntry, i32 0, i32 0, i32 2), ptr %8, align 8
  br label %9

9:                                                ; preds = %3
  %10 = load ptr, ptr %5, align 8
  %11 = icmp ne ptr %10, null
  br i1 %11, label %14, label %12

12:                                               ; preds = %9
  %13 = load ptr, ptr @g_assert_poison, align 8
  store i8 88, ptr %13, align 1
  call void (ptr, i32, ptr, ptr, ...) @_Z15report_vm_errorPKciS0_S0_z(ptr noundef @.str.13, i32 noundef 392, ptr noundef @.str.14, ptr noundef @.str.15) #14
  unreachable

14:                                               ; preds = %9
  br label %15

15:                                               ; preds = %14
  br label %16

16:                                               ; preds = %15
  %17 = load ptr, ptr %6, align 8
  %18 = icmp ne ptr %17, null
  br i1 %18, label %21, label %19

19:                                               ; preds = %16
  %20 = load ptr, ptr @g_assert_poison, align 8
  store i8 88, ptr %20, align 1
  call void (ptr, i32, ptr, ptr, ...) @_Z15report_vm_errorPKciS0_S0_z(ptr noundef @.str.13, i32 noundef 393, ptr noundef @.str.16, ptr noundef @.str.17) #14
  unreachable

21:                                               ; preds = %16
  br label %22

22:                                               ; preds = %21
  %23 = load ptr, ptr %6, align 8
  %24 = call i64 @strlen(ptr noundef %23) #12
  %25 = add i64 %24, 1
  store i64 %25, ptr %7, align 8
  %26 = load ptr, ptr %6, align 8
  %27 = call noundef ptr @_ZN14ClassPathEntry9copy_pathEPKc(ptr noundef nonnull align 8 dereferenceable(16) %8, ptr noundef %26)
  %28 = getelementptr inbounds %class.ClassPathImageEntry, ptr %8, i32 0, i32 1
  store ptr %27, ptr %28, align 8
  ret void
}