; Function Attrs: mustprogress nounwind uwtable
define hidden void @_ZN19ClassPathImageEntryC2EP10JImageFilePKc(ptr noundef nonnull align 8 dereferenceable(24) %0, ptr noundef readnone %1, ptr noundef readonly %2) unnamed_addr #0 align 2 {
  %4 = getelementptr inbounds i8, ptr %0, i64 8
  store volatile ptr null, ptr %4, align 8
  store ptr getelementptr inbounds inrange(-16, 80) (i8, ptr @_ZTV19ClassPathImageEntry, i64 16), ptr %0, align 8
  %.not = icmp eq ptr %1, null
  br i1 %.not, label %5, label %7

5:                                                ; preds = %3
  %6 = load ptr, ptr @g_assert_poison, align 8
  store i8 88, ptr %6, align 1
  tail call void (ptr, i32, ptr, ptr, ...) @_Z15report_vm_errorPKciS0_S0_z(ptr noundef nonnull @.str.13, i32 noundef 392, ptr noundef nonnull @.str.14, ptr noundef nonnull @.str.15) #22
  unreachable

7:                                                ; preds = %3
  %.not5 = icmp eq ptr %2, null
  br i1 %.not5, label %8, label %10

8:                                                ; preds = %7
  %9 = load ptr, ptr @g_assert_poison, align 8
  store i8 88, ptr %9, align 1
  tail call void (ptr, i32, ptr, ptr, ...) @_Z15report_vm_errorPKciS0_S0_z(ptr noundef nonnull @.str.13, i32 noundef 393, ptr noundef nonnull @.str.16, ptr noundef nonnull @.str.17) #22
  unreachable

10:                                               ; preds = %7
  %11 = tail call i64 @strlen(ptr noundef nonnull readonly dereferenceable(1) %2) #21
  %12 = add i64 %11, 1
  %13 = tail call noundef ptr @_Z12AllocateHeapm8MEMFLAGSN17AllocFailStrategy13AllocFailEnumE(i64 noundef %12, i8 noundef zeroext 1, i32 noundef 0) #20
  %14 = tail call ptr @strcpy(ptr noundef nonnull dereferenceable(1) %13, ptr noundef nonnull readonly dereferenceable(1) %2) #20
  %15 = getelementptr inbounds i8, ptr %0, i64 16
  store ptr %13, ptr %15, align 8
  ret void
}